; ModuleID = '31/723.c'
source_filename = "31/723.c"
target datalayout = "e-m:e-p270:32:32-p271:32:32-p272:64:64-i64:64-f80:128-n8:16:32:64-S128"
target triple = "x86_64-pc-linux-gnu"

%struct.Student = type { [100 x i8], %struct.Student*, %struct.Student* }

@.str = private unnamed_addr constant [4 x i8] c"end\00", align 1

; Function Attrs: noinline nounwind uwtable
define dso_local i32 @main() #0 {
  %1 = alloca i32, align 4
  %2 = alloca %struct.Student*, align 8
  %3 = alloca %struct.Student*, align 8
  %4 = alloca %struct.Student*, align 8
  store i32 0, i32* %1, align 4
  %5 = call noalias i8* @malloc(i64 100) #4
  %6 = bitcast i8* %5 to %struct.Student*
  store %struct.Student* %6, %struct.Student** %3, align 8
  store %struct.Student* %6, %struct.Student** %2, align 8
  store %struct.Student* %6, %struct.Student** %4, align 8
  %7 = load %struct.Student*, %struct.Student** %3, align 8
  %8 = getelementptr inbounds %struct.Student, %struct.Student* %7, i32 0, i32 0
  %9 = getelementptr inbounds [100 x i8], [100 x i8]* %8, i64 0, i64 0
  %10 = call i32 (i8*, ...) bitcast (i32 (...)* @gets to i32 (i8*, ...)*)(i8* %9)
  %11 = load %struct.Student*, %struct.Student** %3, align 8
  %12 = getelementptr inbounds %struct.Student, %struct.Student* %11, i32 0, i32 1
  store %struct.Student* null, %struct.Student** %12, align 8
  %13 = load %struct.Student*, %struct.Student** %3, align 8
  %14 = getelementptr inbounds %struct.Student, %struct.Student* %13, i32 0, i32 2
  store %struct.Student* null, %struct.Student** %14, align 8
  br label %15

15:                                               ; preds = %21, %0
  %16 = load %struct.Student*, %struct.Student** %3, align 8
  %17 = getelementptr inbounds %struct.Student, %struct.Student* %16, i32 0, i32 0
  %18 = getelementptr inbounds [100 x i8], [100 x i8]* %17, i64 0, i64 0
  %19 = call i32 @strcmp(i8* %18, i8* getelementptr inbounds ([4 x i8], [4 x i8]* @.str, i64 0, i64 0)) #5
  %20 = icmp ne i32 %19, 0
  br i1 %20, label %21, label %37

21:                                               ; preds = %15
  %22 = load %struct.Student*, %struct.Student** %3, align 8
  store %struct.Student* %22, %struct.Student** %2, align 8
  %23 = call noalias i8* @malloc(i64 100) #4
  %24 = bitcast i8* %23 to %struct.Student*
  store %struct.Student* %24, %struct.Student** %3, align 8
  %25 = load %struct.Student*, %struct.Student** %3, align 8
  %26 = getelementptr inbounds %struct.Student, %struct.Student* %25, i32 0, i32 1
  store %struct.Student* null, %struct.Student** %26, align 8
  %27 = load %struct.Student*, %struct.Student** %2, align 8
  %28 = load %struct.Student*, %struct.Student** %3, align 8
  %29 = getelementptr inbounds %struct.Student, %struct.Student* %28, i32 0, i32 2
  store %struct.Student* %27, %struct.Student** %29, align 8
  %30 = load %struct.Student*, %struct.Student** %3, align 8
  %31 = load %struct.Student*, %struct.Student** %2, align 8
  %32 = getelementptr inbounds %struct.Student, %struct.Student* %31, i32 0, i32 1
  store %struct.Student* %30, %struct.Student** %32, align 8
  %33 = load %struct.Student*, %struct.Student** %3, align 8
  %34 = getelementptr inbounds %struct.Student, %struct.Student* %33, i32 0, i32 0
  %35 = getelementptr inbounds [100 x i8], [100 x i8]* %34, i64 0, i64 0
  %36 = call i32 (i8*, ...) bitcast (i32 (...)* @gets to i32 (i8*, ...)*)(i8* %35)
  br label %15

37:                                               ; preds = %15
  br label %38

38:                                               ; preds = %41, %37
  %39 = load %struct.Student*, %struct.Student** %2, align 8
  %40 = icmp ne %struct.Student* %39, null
  br i1 %40, label %41, label %49

41:                                               ; preds = %38
  %42 = load %struct.Student*, %struct.Student** %2, align 8
  %43 = getelementptr inbounds %struct.Student, %struct.Student* %42, i32 0, i32 0
  %44 = getelementptr inbounds [100 x i8], [100 x i8]* %43, i64 0, i64 0
  %45 = call i32 @puts(i8* %44)
  %46 = load %struct.Student*, %struct.Student** %2, align 8
  %47 = getelementptr inbounds %struct.Student, %struct.Student* %46, i32 0, i32 2
  %48 = load %struct.Student*, %struct.Student** %47, align 8
  store %struct.Student* %48, %struct.Student** %2, align 8
  br label %38

49:                                               ; preds = %38
  %50 = load i32, i32* %1, align 4
  ret i32 %50
}

; Function Attrs: nounwind
declare dso_local noalias i8* @malloc(i64) #1

declare dso_local i32 @gets(...) #2

; Function Attrs: nounwind readonly
declare dso_local i32 @strcmp(i8*, i8*) #3

declare dso_local i32 @puts(i8*) #2


!llvm.module.flags = !{!0}
!llvm.ident = !{!1}

!0 = !{i32 1, !"wchar_size", i32 4}
!1 = !{!"clang version 10.0.0-4ubuntu1 "}
