; ModuleID = 'source-C-CXX/30/723.c'
source_filename = "source-C-CXX/30/723.c"
target datalayout = "e-m:e-p270:32:32-p271:32:32-p272:64:64-i64:64-f80:128-n8:16:32:64-S128"
target triple = "x86_64-pc-linux-gnu"

%struct.Student = type { [100 x i8], %struct.Student*, %struct.Student* }

@.str = private unnamed_addr constant [4 x i8] c"end\00", align 1

; Function Attrs: nounwind sspstrong uwtable
define dso_local i32 @main() local_unnamed_addr #0 {
  %1 = tail call noalias align 16 dereferenceable_or_null(100) i8* @malloc(i64 100) #6
  %2 = bitcast i8* %1 to %struct.Student*
  %3 = getelementptr inbounds %struct.Student, %struct.Student* %2, i64 0, i32 0, i64 0
  %4 = tail call i32 (i8*, ...) bitcast (i32 (...)* @gets to i32 (i8*, ...)*)(i8* %3) #6
  %5 = getelementptr inbounds %struct.Student, %struct.Student* %2, i64 0, i32 1
  %6 = bitcast %struct.Student** %5 to i8*
  call void @llvm.memset.p0i8.i64(i8* noundef nonnull align 8 dereferenceable(16) %6, i8 0, i64 16, i1 false)
  %7 = tail call i32 @strcmp(i8* noundef nonnull dereferenceable(1) %3, i8* noundef nonnull dereferenceable(4) getelementptr inbounds ([4 x i8], [4 x i8]* @.str, i64 0, i64 0)) #7
  %8 = icmp eq i32 %7, 0
  br i1 %8, label %21, label %9

9:                                                ; preds = %0, %9
  %10 = phi %struct.Student* [ %12, %9 ], [ %2, %0 ]
  %11 = tail call noalias align 16 dereferenceable_or_null(100) i8* @malloc(i64 100) #6
  %12 = bitcast i8* %11 to %struct.Student*
  %13 = getelementptr inbounds %struct.Student, %struct.Student* %12, i64 0, i32 1
  store %struct.Student* null, %struct.Student** %13, align 8, !tbaa !5
  %14 = getelementptr inbounds %struct.Student, %struct.Student* %12, i64 0, i32 2
  store %struct.Student* %10, %struct.Student** %14, align 16, !tbaa !10
  %15 = getelementptr inbounds %struct.Student, %struct.Student* %10, i64 0, i32 1
  %16 = bitcast %struct.Student** %15 to i8**
  store i8* %11, i8** %16, align 8, !tbaa !5
  %17 = getelementptr inbounds %struct.Student, %struct.Student* %12, i64 0, i32 0, i64 0
  %18 = tail call i32 (i8*, ...) bitcast (i32 (...)* @gets to i32 (i8*, ...)*)(i8* %17) #6
  %19 = tail call i32 @strcmp(i8* noundef nonnull dereferenceable(1) %17, i8* noundef nonnull dereferenceable(4) getelementptr inbounds ([4 x i8], [4 x i8]* @.str, i64 0, i64 0)) #7
  %20 = icmp eq i32 %19, 0
  br i1 %20, label %21, label %9, !llvm.loop !11

21:                                               ; preds = %9, %0
  %22 = phi %struct.Student* [ %2, %0 ], [ %10, %9 ]
  br label %23

23:                                               ; preds = %21, %23
  %24 = phi %struct.Student* [ %28, %23 ], [ %22, %21 ]
  %25 = getelementptr inbounds %struct.Student, %struct.Student* %24, i64 0, i32 0, i64 0
  %26 = tail call i32 @puts(i8* nonnull %25)
  %27 = getelementptr inbounds %struct.Student, %struct.Student* %24, i64 0, i32 2
  %28 = load %struct.Student*, %struct.Student** %27, align 8, !tbaa !10
  %29 = icmp eq %struct.Student* %28, null
  br i1 %29, label %30, label %23, !llvm.loop !13

30:                                               ; preds = %23
  ret i32 0
}

; Function Attrs: inaccessiblememonly mustprogress nofree nounwind willreturn
declare noalias noundef align 16 i8* @malloc(i64 noundef) local_unnamed_addr #1

declare i32 @gets(...) local_unnamed_addr #2

; Function Attrs: argmemonly mustprogress nofree nounwind readonly willreturn
declare i32 @strcmp(i8* nocapture, i8* nocapture) local_unnamed_addr #3

; Function Attrs: nofree nounwind
declare noundef i32 @puts(i8* nocapture noundef readonly) local_unnamed_addr #4

; Function Attrs: argmemonly nofree nounwind willreturn writeonly
declare void @llvm.memset.p0i8.i64(i8* nocapture writeonly, i8, i64, i1 immarg) #5


!llvm.module.flags = !{!0, !1, !2, !3}
!llvm.ident = !{!4}

!0 = !{i32 1, !"wchar_size", i32 4}
!1 = !{i32 7, !"PIC Level", i32 2}
!2 = !{i32 7, !"PIE Level", i32 2}
!3 = !{i32 7, !"uwtable", i32 1}
!4 = !{!"clang version 13.0.0"}
!5 = !{!6, !9, i64 104}
!6 = !{!"Student", !7, i64 0, !9, i64 104, !9, i64 112}
!7 = !{!"omnipotent char", !8, i64 0}
!8 = !{!"Simple C/C++ TBAA"}
!9 = !{!"any pointer", !7, i64 0}
!10 = !{!6, !9, i64 112}
!11 = distinct !{!11, !12}
!12 = !{!"llvm.loop.mustprogress"}
!13 = distinct !{!13, !12}
